target datalayout = "e-m:e-p270:32:32-p271:32:32-p272:64:64-i64:64-i128:128-f80:128-n8:16:32:64-S128"
target triple = "x86_64-pc-linux-gnu"

%struct.EVP_AES_GCM_CTX = type { %union.anon.1, i32, i32, %struct.gcm128_context, ptr, i32, i32, i32, i32, i32, i64, ptr }
%union.anon.1 = type { double, [240 x i8] }
%struct.gcm128_context = type { %union.anon.2, %union.anon.2, %union.anon.2, %union.anon.2, %union.anon.2, %union.anon.2, [16 x %struct.u128], %struct.gcm_funcs_st, i32, i32, ptr, ptr, [48 x i8] }
%union.anon.2 = type { [2 x i64] }
%struct.u128 = type { i64, i64 }
%struct.gcm_funcs_st = type { ptr, ptr, ptr }

@OPENSSL_ia32cap_P = external global [0 x i32], align 4
@.str = private unnamed_addr constant [30 x i8] c"../openssl/crypto/evp/e_aes.c\00", align 1
@__func__.aes_gcm_init_key = private unnamed_addr constant [17 x i8] c"aes_gcm_init_key\00", align 1

; Function Attrs: nounwind uwtable
define internal i32 @aes_gcm_init_key(ptr noundef %0, ptr noundef %1, ptr noundef %2, i32 noundef %3) #0 {
  %5 = alloca i32, align 4
  %6 = alloca ptr, align 8
  %7 = alloca ptr, align 8
  %8 = alloca ptr, align 8
  %9 = alloca i32, align 4
  %10 = alloca ptr, align 8
  %11 = alloca i32, align 4
  %12 = alloca i32, align 4
  store ptr %0, ptr %6, align 8, !tbaa !7
  store ptr %1, ptr %7, align 8, !tbaa !10
  store ptr %2, ptr %8, align 8, !tbaa !10
  store i32 %3, ptr %9, align 4, !tbaa !3
  call void @llvm.lifetime.start.p0(i64 8, ptr %10) #4
  %13 = load ptr, ptr %6, align 8, !tbaa !7
  %14 = call ptr @EVP_CIPHER_CTX_get_cipher_data(ptr noundef %13)
  store ptr %14, ptr %10, align 8, !tbaa !12
  %15 = load ptr, ptr %8, align 8, !tbaa !10
  %16 = icmp eq ptr %15, null
  br i1 %16, label %17, label %21

17:                                               ; preds = %4
  %18 = load ptr, ptr %7, align 8, !tbaa !10
  %19 = icmp eq ptr %18, null
  br i1 %19, label %20, label %21

20:                                               ; preds = %17
  store i32 1, ptr %5, align 4
  store i32 1, ptr %11, align 4
  br label %138

21:                                               ; preds = %17, %4
  %22 = load ptr, ptr %7, align 8, !tbaa !10
  %23 = icmp ne ptr %22, null
  br i1 %23, label %24, label %110

24:                                               ; preds = %21
  call void @llvm.lifetime.start.p0(i64 4, ptr %12) #4
  %25 = load ptr, ptr %6, align 8, !tbaa !7
  %26 = call i32 @EVP_CIPHER_CTX_get_key_length(ptr noundef %25)
  %27 = mul nsw i32 %26, 8
  store i32 %27, ptr %12, align 4, !tbaa !3
  %28 = load i32, ptr %12, align 4, !tbaa !3
  %29 = icmp sle i32 %28, 0
  br i1 %29, label %30, label %31

30:                                               ; preds = %24
  call void @ERR_new()
  call void @ERR_set_debug(ptr noundef @.str, i32 noundef 2800, ptr noundef @__func__.aes_gcm_init_key)
  call void (i32, i32, ptr, ...) @ERR_set_error(i32 noundef 6, i32 noundef 130, ptr noundef null)
  store i32 0, ptr %5, align 4
  store i32 1, ptr %11, align 4
  br label %107

31:                                               ; preds = %24
  br label %32

32:                                               ; preds = %31
  %33 = load i32, ptr getelementptr inbounds ([0 x i32], ptr @OPENSSL_ia32cap_P, i64 0, i64 1), align 4, !tbaa !3
  %34 = and i32 %33, 512
  %35 = icmp ne i32 %34, 0
  br i1 %35, label %36, label %48

36:                                               ; preds = %32
  %37 = load ptr, ptr %7, align 8, !tbaa !10
  %38 = load i32, ptr %12, align 4, !tbaa !3
  %39 = load ptr, ptr %10, align 8, !tbaa !12
  %40 = getelementptr inbounds nuw %struct.EVP_AES_GCM_CTX, ptr %39, i32 0, i32 0
  %41 = call i32 @AES_set_encrypt_key(ptr noundef %37, i32 noundef %38, ptr noundef %40)
  %42 = load ptr, ptr %10, align 8, !tbaa !12
  %43 = getelementptr inbounds nuw %struct.EVP_AES_GCM_CTX, ptr %42, i32 0, i32 3
  %44 = load ptr, ptr %10, align 8, !tbaa !12
  %45 = getelementptr inbounds nuw %struct.EVP_AES_GCM_CTX, ptr %44, i32 0, i32 0
  call void @CRYPTO_gcm128_init(ptr noundef %43, ptr noundef %45, ptr noundef @AES_encrypt)
  %46 = load ptr, ptr %10, align 8, !tbaa !12
  %47 = getelementptr inbounds nuw %struct.EVP_AES_GCM_CTX, ptr %46, i32 0, i32 11
  store ptr @ossl_bsaes_ctr32_encrypt_blocks, ptr %47, align 8, !tbaa !21
  br label %79

48:                                               ; preds = %32
  %49 = load i32, ptr getelementptr inbounds ([0 x i32], ptr @OPENSSL_ia32cap_P, i64 0, i64 1), align 4, !tbaa !3
  %50 = and i32 %49, 512
  %51 = icmp ne i32 %50, 0
  br i1 %51, label %52, label %64

52:                                               ; preds = %48
  %53 = load ptr, ptr %7, align 8, !tbaa !10
  %54 = load i32, ptr %12, align 4, !tbaa !3
  %55 = load ptr, ptr %10, align 8, !tbaa !12
  %56 = getelementptr inbounds nuw %struct.EVP_AES_GCM_CTX, ptr %55, i32 0, i32 0
  %57 = call i32 @vpaes_set_encrypt_key(ptr noundef %53, i32 noundef %54, ptr noundef %56)
  %58 = load ptr, ptr %10, align 8, !tbaa !12
  %59 = getelementptr inbounds nuw %struct.EVP_AES_GCM_CTX, ptr %58, i32 0, i32 3
  %60 = load ptr, ptr %10, align 8, !tbaa !12
  %61 = getelementptr inbounds nuw %struct.EVP_AES_GCM_CTX, ptr %60, i32 0, i32 0
  call void @CRYPTO_gcm128_init(ptr noundef %59, ptr noundef %61, ptr noundef @vpaes_encrypt)
  %62 = load ptr, ptr %10, align 8, !tbaa !12
  %63 = getelementptr inbounds nuw %struct.EVP_AES_GCM_CTX, ptr %62, i32 0, i32 11
  store ptr null, ptr %63, align 8, !tbaa !21
  br label %79

64:                                               ; preds = %48
  br label %65

65:                                               ; preds = %64
  br label %66

66:                                               ; preds = %65
  %67 = load ptr, ptr %7, align 8, !tbaa !10
  %68 = load i32, ptr %12, align 4, !tbaa !3
  %69 = load ptr, ptr %10, align 8, !tbaa !12
  %70 = getelementptr inbounds nuw %struct.EVP_AES_GCM_CTX, ptr %69, i32 0, i32 0
  %71 = call i32 @AES_set_encrypt_key(ptr noundef %67, i32 noundef %68, ptr noundef %70)
  %72 = load ptr, ptr %10, align 8, !tbaa !12
  %73 = getelementptr inbounds nuw %struct.EVP_AES_GCM_CTX, ptr %72, i32 0, i32 3
  %74 = load ptr, ptr %10, align 8, !tbaa !12
  %75 = getelementptr inbounds nuw %struct.EVP_AES_GCM_CTX, ptr %74, i32 0, i32 0
  call void @CRYPTO_gcm128_init(ptr noundef %73, ptr noundef %75, ptr noundef @AES_encrypt)
  %76 = load ptr, ptr %10, align 8, !tbaa !12
  %77 = getelementptr inbounds nuw %struct.EVP_AES_GCM_CTX, ptr %76, i32 0, i32 11
  store ptr null, ptr %77, align 8, !tbaa !21
  br label %78

78:                                               ; preds = %66
  br label %79

79:                                               ; preds = %78, %52, %36
  %80 = load ptr, ptr %8, align 8, !tbaa !10
  %81 = icmp eq ptr %80, null
  br i1 %81, label %82, label %91

82:                                               ; preds = %79
  %83 = load ptr, ptr %10, align 8, !tbaa !12
  %84 = getelementptr inbounds nuw %struct.EVP_AES_GCM_CTX, ptr %83, i32 0, i32 2
  %85 = load i32, ptr %84, align 4, !tbaa !25
  %86 = icmp ne i32 %85, 0
  br i1 %86, label %87, label %91

87:                                               ; preds = %82
  %88 = load ptr, ptr %10, align 8, !tbaa !12
  %89 = getelementptr inbounds nuw %struct.EVP_AES_GCM_CTX, ptr %88, i32 0, i32 4
  %90 = load ptr, ptr %89, align 8, !tbaa !26
  store ptr %90, ptr %8, align 8, !tbaa !10
  br label %91

91:                                               ; preds = %87, %82, %79
  %92 = load ptr, ptr %8, align 8, !tbaa !10
  %93 = icmp ne ptr %92, null
  br i1 %93, label %94, label %104

94:                                               ; preds = %91
  %95 = load ptr, ptr %10, align 8, !tbaa !12
  %96 = getelementptr inbounds nuw %struct.EVP_AES_GCM_CTX, ptr %95, i32 0, i32 3
  %97 = load ptr, ptr %8, align 8, !tbaa !10
  %98 = load ptr, ptr %10, align 8, !tbaa !12
  %99 = getelementptr inbounds nuw %struct.EVP_AES_GCM_CTX, ptr %98, i32 0, i32 5
  %100 = load i32, ptr %99, align 8, !tbaa !27
  %101 = sext i32 %100 to i64
  call void @CRYPTO_gcm128_setiv(ptr noundef %96, ptr noundef %97, i64 noundef %101)
  %102 = load ptr, ptr %10, align 8, !tbaa !12
  %103 = getelementptr inbounds nuw %struct.EVP_AES_GCM_CTX, ptr %102, i32 0, i32 2
  store i32 1, ptr %103, align 4, !tbaa !25
  br label %104

104:                                              ; preds = %94, %91
  %105 = load ptr, ptr %10, align 8, !tbaa !12
  %106 = getelementptr inbounds nuw %struct.EVP_AES_GCM_CTX, ptr %105, i32 0, i32 1
  store i32 1, ptr %106, align 8, !tbaa !28
  store i32 0, ptr %11, align 4
  br label %107

107:                                              ; preds = %104, %30
  call void @llvm.lifetime.end.p0(i64 4, ptr %12) #4
  %108 = load i32, ptr %11, align 4
  switch i32 %108, label %138 [
    i32 0, label %109
  ]

109:                                              ; preds = %107
  br label %137

110:                                              ; preds = %21
  %111 = load ptr, ptr %10, align 8, !tbaa !12
  %112 = getelementptr inbounds nuw %struct.EVP_AES_GCM_CTX, ptr %111, i32 0, i32 1
  %113 = load i32, ptr %112, align 8, !tbaa !28
  %114 = icmp ne i32 %113, 0
  br i1 %114, label %115, label %123

115:                                              ; preds = %110
  %116 = load ptr, ptr %10, align 8, !tbaa !12
  %117 = getelementptr inbounds nuw %struct.EVP_AES_GCM_CTX, ptr %116, i32 0, i32 3
  %118 = load ptr, ptr %8, align 8, !tbaa !10
  %119 = load ptr, ptr %10, align 8, !tbaa !12
  %120 = getelementptr inbounds nuw %struct.EVP_AES_GCM_CTX, ptr %119, i32 0, i32 5
  %121 = load i32, ptr %120, align 8, !tbaa !27
  %122 = sext i32 %121 to i64
  call void @CRYPTO_gcm128_setiv(ptr noundef %117, ptr noundef %118, i64 noundef %122)
  br label %132

123:                                              ; preds = %110
  %124 = load ptr, ptr %10, align 8, !tbaa !12
  %125 = getelementptr inbounds nuw %struct.EVP_AES_GCM_CTX, ptr %124, i32 0, i32 4
  %126 = load ptr, ptr %125, align 8, !tbaa !26
  %127 = load ptr, ptr %8, align 8, !tbaa !10
  %128 = load ptr, ptr %10, align 8, !tbaa !12
  %129 = getelementptr inbounds nuw %struct.EVP_AES_GCM_CTX, ptr %128, i32 0, i32 5
  %130 = load i32, ptr %129, align 8, !tbaa !27
  %131 = sext i32 %130 to i64
  call void @llvm.memcpy.p0.p0.i64(ptr align 1 %126, ptr align 1 %127, i64 %131, i1 false)
  br label %132

132:                                              ; preds = %123, %115
  %133 = load ptr, ptr %10, align 8, !tbaa !12
  %134 = getelementptr inbounds nuw %struct.EVP_AES_GCM_CTX, ptr %133, i32 0, i32 2
  store i32 1, ptr %134, align 4, !tbaa !25
  %135 = load ptr, ptr %10, align 8, !tbaa !12
  %136 = getelementptr inbounds nuw %struct.EVP_AES_GCM_CTX, ptr %135, i32 0, i32 7
  store i32 0, ptr %136, align 8, !tbaa !29
  br label %137

137:                                              ; preds = %132, %109
  store i32 1, ptr %5, align 4
  store i32 1, ptr %11, align 4
  br label %138

138:                                              ; preds = %137, %107, %20
  call void @llvm.lifetime.end.p0(i64 8, ptr %10) #4
  %139 = load i32, ptr %5, align 4
  ret i32 %139
}