; Function Attrs: nounwind uwtable
define internal range(i32 0, 2) i32 @aes_gcm_init_key(ptr noundef %0, ptr noundef %1, ptr noundef %2, i32 %3) #2 {
  %5 = tail call ptr @EVP_CIPHER_CTX_get_cipher_data(ptr noundef %0) #8
  %6 = icmp eq ptr %2, null
  %7 = icmp eq ptr %1, null
  %or.cond = and i1 %7, %6
  br i1 %or.cond, label %49, label %8

8:                                                ; preds = %4
  br i1 %7, label %32, label %9

9:                                                ; preds = %8
  %10 = tail call i32 @EVP_CIPHER_CTX_get_key_length(ptr noundef %0) #8
  %11 = icmp sgt i32 %10, 0
  br i1 %11, label %12, label %31

12:                                               ; preds = %9
  %13 = shl nsw i32 %10, 3
  %14 = load i32, ptr getelementptr inbounds nuw (i8, ptr @OPENSSL_ia32cap_P, i64 4), align 4, !tbaa !3
  %15 = and i32 %14, 512
  %.not50 = icmp eq i32 %15, 0
  %16 = tail call i32 @AES_set_encrypt_key(ptr noundef nonnull %1, i32 noundef %13, ptr noundef %5) #8
  %17 = getelementptr inbounds nuw i8, ptr %5, i64 256
  tail call void @CRYPTO_gcm128_init(ptr noundef nonnull %17, ptr noundef %5, ptr noundef nonnull @AES_encrypt) #8
  %.ossl_bsaes_ctr32_encrypt_blocks = select i1 %.not50, ptr null, ptr @ossl_bsaes_ctr32_encrypt_blocks
  %18 = getelementptr inbounds nuw i8, ptr %5, i64 744
  store ptr %.ossl_bsaes_ctr32_encrypt_blocks, ptr %18, align 8, !tbaa !14
  br i1 %6, label %19, label %.thread55

19:                                               ; preds = %12
  %20 = getelementptr inbounds nuw i8, ptr %5, i64 252
  %21 = load i32, ptr %20, align 4, !tbaa !20
  %.not51 = icmp eq i32 %21, 0
  br i1 %.not51, label %.thread59, label %22

22:                                               ; preds = %19
  %23 = getelementptr inbounds nuw i8, ptr %5, i64 704
  %24 = load ptr, ptr %23, align 8, !tbaa !21
  %.not52 = icmp eq ptr %24, null
  br i1 %.not52, label %.thread59, label %.thread55

.thread55:                                        ; preds = %12, %22
  %.04558 = phi ptr [ %24, %22 ], [ %2, %12 ]
  %25 = getelementptr inbounds nuw i8, ptr %5, i64 256
  %26 = getelementptr inbounds nuw i8, ptr %5, i64 712
  %27 = load i32, ptr %26, align 8, !tbaa !22
  %28 = sext i32 %27 to i64
  tail call void @CRYPTO_gcm128_setiv(ptr noundef nonnull %25, ptr noundef nonnull %.04558, i64 noundef %28) #8
  %29 = getelementptr inbounds nuw i8, ptr %5, i64 252
  store i32 1, ptr %29, align 4, !tbaa !20
  br label %.thread59

.thread59:                                        ; preds = %22, %.thread55, %19
  %30 = getelementptr inbounds nuw i8, ptr %5, i64 248
  store i32 1, ptr %30, align 8, !tbaa !23
  br label %49

31:                                               ; preds = %9
  tail call void @ERR_new() #8
  tail call void @ERR_set_debug(ptr noundef nonnull @.str, i32 noundef 2800, ptr noundef nonnull @__func__.aes_gcm_init_key) #8
  tail call void (i32, i32, ptr, ...) @ERR_set_error(i32 noundef 6, i32 noundef 130, ptr noundef null) #8
  br label %49

32:                                               ; preds = %8
  %33 = getelementptr inbounds nuw i8, ptr %5, i64 248
  %34 = load i32, ptr %33, align 8, !tbaa !23
  %.not49 = icmp eq i32 %34, 0
  br i1 %.not49, label %40, label %35

35:                                               ; preds = %32
  %36 = getelementptr inbounds nuw i8, ptr %5, i64 256
  %37 = getelementptr inbounds nuw i8, ptr %5, i64 712
  %38 = load i32, ptr %37, align 8, !tbaa !22
  %39 = sext i32 %38 to i64
  tail call void @CRYPTO_gcm128_setiv(ptr noundef nonnull %36, ptr noundef %2, i64 noundef %39) #8
  br label %46

40:                                               ; preds = %32
  %41 = getelementptr inbounds nuw i8, ptr %5, i64 704
  %42 = load ptr, ptr %41, align 8, !tbaa !21
  %43 = getelementptr inbounds nuw i8, ptr %5, i64 712
  %44 = load i32, ptr %43, align 8, !tbaa !22
  %45 = sext i32 %44 to i64
  tail call void @llvm.memcpy.p0.p0.i64(ptr align 1 %42, ptr align 1 %2, i64 %45, i1 false)
  br label %46

46:                                               ; preds = %40, %35
  %47 = getelementptr inbounds nuw i8, ptr %5, i64 252
  store i32 1, ptr %47, align 4, !tbaa !20
  %48 = getelementptr inbounds nuw i8, ptr %5, i64 720
  store i32 0, ptr %48, align 8, !tbaa !24
  br label %49

49:                                               ; preds = %46, %.thread59, %31, %4
  %.0 = phi i32 [ 0, %31 ], [ 1, %4 ], [ 1, %.thread59 ], [ 1, %46 ]
  ret i32 %.0
}